target datalayout = "e-m:e-p270:32:32-p271:32:32-p272:64:64-i64:64-i128:128-f80:128-n8:16:32:64-S128"
target triple = "x86_64-pc-linux-gnu"

@.str = private unnamed_addr constant [3 x i8] c" \09\00", align 1
@.str.12 = private unnamed_addr constant [4 x i8] c" \09\0D\00", align 1

; Function Attrs: inlinehint mustprogress nounwind ssp willreturn memory(read) uwtable
define available_externally i32 @atoi(ptr noundef nonnull %0) #11 {
  %2 = alloca ptr, align 8
  store ptr %0, ptr %2, align 8, !tbaa !33
  %3 = load ptr, ptr %2, align 8, !tbaa !33
  %4 = call i64 @__isoc23_strtol(ptr noundef %3, ptr noundef null, i32 noundef 10) #31
  %5 = trunc i64 %4 to i32
  ret i32 %5
}

; Function Attrs: inlinehint mustprogress nounwind ssp uwtable
define internal noundef i32 @_ZN7tinyobjL8parseIntEPPKc(ptr noundef %0) #5 {
  %2 = alloca ptr, align 8
  %3 = alloca i32, align 4
  store ptr %0, ptr %2, align 8, !tbaa !54
  %4 = load ptr, ptr %2, align 8, !tbaa !54
  %5 = load ptr, ptr %4, align 8, !tbaa !33
  %6 = call i64 @strspn(ptr noundef %5, ptr noundef @.str) #26
  %7 = load ptr, ptr %2, align 8, !tbaa !54
  %8 = load ptr, ptr %7, align 8, !tbaa !33
  %9 = getelementptr inbounds nuw i8, ptr %8, i64 %6
  store ptr %9, ptr %7, align 8, !tbaa !33
  call void @llvm.lifetime.start.p0(i64 4, ptr %3) #31
  %10 = load ptr, ptr %2, align 8, !tbaa !54
  %11 = load ptr, ptr %10, align 8, !tbaa !33
  %12 = call i32 @atoi(ptr noundef %11) #26
  store i32 %12, ptr %3, align 4, !tbaa !63
  %13 = load ptr, ptr %2, align 8, !tbaa !54
  %14 = load ptr, ptr %13, align 8, !tbaa !33
  %15 = call i64 @strcspn(ptr noundef %14, ptr noundef @.str.12) #26
  %16 = load ptr, ptr %2, align 8, !tbaa !54
  %17 = load ptr, ptr %16, align 8, !tbaa !33
  %18 = getelementptr inbounds nuw i8, ptr %17, i64 %15
  store ptr %18, ptr %16, align 8, !tbaa !33
  %19 = load i32, ptr %3, align 4, !tbaa !63
  call void @llvm.lifetime.end.p0(i64 4, ptr %3) #31
  ret i32 %19
}