; Function Attrs: inlinehint mustprogress nounwind ssp uwtable
define internal fastcc noundef i32 @_ZN7tinyobjL8parseIntEPPKc(ptr noundef nonnull captures(none) %0) unnamed_addr #7 {
  %2 = load ptr, ptr %0, align 8, !tbaa !100
  %3 = tail call i64 @strspn(ptr noundef %2, ptr noundef nonnull @.str) #38
  %4 = getelementptr inbounds nuw i8, ptr %2, i64 %3
  store ptr %4, ptr %0, align 8, !tbaa !100
  %5 = tail call i64 @__isoc23_strtol(ptr noundef nonnull %4, ptr noundef null, i32 noundef 10) #36
  %6 = trunc i64 %5 to i32
  %7 = tail call i64 @strcspn(ptr noundef nonnull %4, ptr noundef nonnull @.str.12) #38
  %8 = getelementptr inbounds nuw i8, ptr %4, i64 %7
  store ptr %8, ptr %0, align 8, !tbaa !100
  ret i32 %6
}